Certificate:
    Data:
        Version: 3 (0x2)
        Serial Number: 14380930936148206650 (0xc793547e348a243a)
    Signature Algorithm: sha256WithRSAEncryption
        Issuer: CN=QUIC Server Root CA
        Validity
            Not Before: Sep 25 09:35:21 2015 GMT
            Not After : Sep 28 09:35:21 2015 GMT
        Subject: CN=QUIC Server Root CA
        Subject Public Key Info:
            Public Key Algorithm: rsaEncryption
                Public-Key: (2048 bit)
                Modulus:
                    00:eb:21:34:74:a3:d7:34:2b:cd:81:a5:de:b0:b7:
                    62:16:6e:09:55:66:d4:7a:15:13:07:8a:23:8c:52:
                    18:48:42:ea:a5:5a:87:85:80:96:6d:fa:86:ca:8e:
                    c9:5b:cb:ab:34:b0:4d:2b:d6:f1:82:b9:95:19:25:
                    e3:b3:fe:cf:7a:83:0b:8e:79:61:76:a8:be:63:53:
                    5d:11:90:7d:f7:f6:35:e3:aa:8f:7f:d6:16:86:10:
                    9f:b8:f7:d3:eb:73:6d:b9:56:31:fd:50:2e:3c:58:
                    a0:54:95:3c:d4:3e:aa:b9:5d:0e:b8:19:d9:57:79:
                    7e:0d:21:5e:d0:16:63:c6:46:76:08:52:a9:89:17:
                    83:37:fc:ec:95:44:28:46:2b:6b:a2:06:2c:4d:39:
                    b7:97:f5:0b:36:68:a9:24:d6:3a:3b:c5:4a:14:8b:
                    dc:4c:df:d8:b5:e7:4e:a6:5d:f1:11:b8:5e:ad:5a:
                    a7:91:e5:ad:a1:d9:f0:79:d4:59:6b:72:25:2a:ea:
                    13:cb:d2:58:3b:e0:9d:d8:00:da:1e:6b:c5:a0:54:
                    0c:02:d0:02:86:79:20:0c:d8:9d:cd:6a:31:8a:fb:
                    d5:c3:91:fd:58:54:52:f9:77:d7:de:25:a9:a0:72:
                    d8:aa:7c:70:34:a0:13:35:c9:5f:a2:e0:8d:e8:78:
                    b0:47
                Exponent: 65537 (0x10001)
        X509v3 extensions:
            X509v3 Basic Constraints: critical
                CA:TRUE
            X509v3 Subject Key Identifier: 
                F7:FB:EA:44:B9:0B:F3:E1:D3:85:50:2D:09:C7:39:A8:E2:A9:AD:9D
            X509v3 Key Usage: critical
                Certificate Sign, CRL Sign
    Signature Algorithm: sha256WithRSAEncryption
         5a:23:88:3d:7b:68:a1:b3:13:6d:50:f4:98:20:01:3b:8c:b8:
         c5:2a:e8:06:ad:6c:9f:51:f3:01:2d:64:70:16:b0:d3:6d:e0:
         27:6a:91:46:e8:39:0b:a0:a9:7f:83:51:58:8c:92:4a:de:18:
         e5:69:10:2d:f2:7d:52:7e:56:c4:5b:88:1f:b2:d3:e1:3d:fd:
         11:15:49:72:bb:75:73:95:0e:ca:dd:4b:50:92:f9:7e:46:8d:
         2a:c4:ba:8d:ad:6f:52:f5:39:a9:1b:16:95:13:eb:2f:d9:b9:
         61:0e:0b:24:07:5f:a5:fc:d6:b1:a5:98:b1:38:16:30:88:2b:
         7f:6d:ab:ce:64:0c:ea:ff:8f:59:56:eb:3d:2e:7d:25:e5:e9:
         90:6a:a1:4e:5c:fd:f5:71:60:97:5a:d9:40:eb:ba:e7:ec:df:
         5b:d3:c7:70:32:f2:bf:d3:63:1c:b0:15:07:b2:82:2d:79:17:
         71:78:24:4f:11:19:77:dc:05:de:d1:51:f1:30:61:97:d9:f9:
         44:41:95:23:90:b8:36:a0:fd:de:1d:83:b2:54:8d:f8:ef:6e:
         31:0e:33:15:53:51:1d:43:7d:e7:5e:28:f7:68:b4:cb:19:f7:
         4d:2b:25:d8:cc:ee:aa:81:5f:32:5a:15:a2:66:e4:db:be:42:
         85:72:cf:a5
-----BEGIN CERTIFICATE-----
MIIDATCCAemgAwIBAgIJAMeTVH40iiQ6MA0GCSqGSIb3DQEBCwUAMB4xHDAaBgNV
BAMME1FVSUMgU2VydmVyIFJvb3QgQ0EwHhcNMTUwOTI1MDkzNTIxWhcNMTUwOTI4
MDkzNTIxWjAeMRwwGgYDVQQDDBNRVUlDIFNlcnZlciBSb290IENBMIIBIjANBgkq
hkiG9w0BAQEFAAOCAQ8AMIIBCgKCAQEA6yE0dKPXNCvNgaXesLdiFm4JVWbUehUT
B4ojjFIYSELqpVqHhYCWbfqGyo7JW8urNLBNK9bxgrmVGSXjs/7PeoMLjnlhdqi+
Y1NdEZB99/Y146qPf9YWhhCfuPfT63NtuVYx/VAuPFigVJU81D6quV0OuBnZV3l+
DSFe0BZjxkZ2CFKpiReDN/zslUQoRitrogYsTTm3l/ULNmipJNY6O8VKFIvcTN/Y
tedOpl3xEbherVqnkeWtodnwedRZa3IlKuoTy9JYO+Cd2ADaHmvFoFQMAtAChnkg
DNidzWoxivvVw5H9WFRS+XfX3iWpoHLYqnxwNKATNclfouCN6HiwRwIDAQABo0Iw
QDAPBgNVHRMBAf8EBTADAQH/MB0GA1UdDgQWBBT3++pEuQvz4dOFUC0Jxzmo4qmt
nTAOBgNVHQ8BAf8EBAMCAQYwDQYJKoZIhvcNAQELBQADggEBAFojiD17aKGzE21Q
9JggATuMuMUq6AatbJ9R8wEtZHAWsNNt4CdqkUboOQugqX+DUViMkkreGOVpEC3y
fVJ+VsRbiB+y0+E9/REVSXK7dXOVDsrdS1CS+X5GjSrEuo2tb1L1OakbFpUT6y/Z
uWEOCyQHX6X81rGlmLE4FjCIK39tq85kDOr/j1lW6z0ufSXl6ZBqoU5c/fVxYJda
2UDruufs31vTx3Ay8r/TYxywFQeygi15F3F4JE8RGXfcBd7RUfEwYZfZ+URBlSOQ
uDag/d4dg7JUjfjvbjEOMxVTUR1DfedeKPdotMsZ900rJdjM7qqBXzJaFaJm5Nu+
QoVyz6U=
-----END CERTIFICATE-----
