Certificate:
    Data:
        Version: 3 (0x2)
        Serial Number: 1 (0x1)
    Signature Algorithm: sha256WithRSAEncryption
        Issuer: CN=QUIC Server Root CA
        Validity
            Not Before: Sep 25 09:35:21 2015 GMT
            Not After : Sep 28 09:35:21 2015 GMT
        Subject: C=US, ST=California, L=Mountain View, O=QUIC Server, CN=127.0.0.1
        Subject Public Key Info:
            Public Key Algorithm: rsaEncryption
                Public-Key: (2048 bit)
                Modulus:
                    00:c4:3d:ee:85:c8:15:15:6a:29:65:ef:50:0c:25:
                    a7:30:11:0c:fb:6d:4d:5a:1a:65:ce:32:f5:5c:e8:
                    13:f6:d0:b7:01:d5:ea:7f:fc:f2:ac:1d:08:08:f0:
                    71:64:b3:69:ce:d7:a7:40:2e:bc:76:df:2b:98:87:
                    91:13:98:57:92:be:bf:25:be:58:4f:54:2b:36:7b:
                    02:51:d0:2d:ba:3f:c0:e8:57:4f:22:03:ef:3d:93:
                    60:ed:b2:15:46:c1:0b:d7:f3:37:c0:85:c8:82:75:
                    74:f5:31:4d:e1:45:00:7a:fd:ca:a6:9b:ce:83:aa:
                    d6:82:2a:53:59:33:1a:28:14:ad:14:ec:d5:03:43:
                    dc:a4:1e:84:47:35:10:15:be:63:90:b0:20:66:f5:
                    62:38:d6:9e:23:fd:a3:68:e5:c9:f0:7f:34:92:52:
                    9e:95:3e:e4:99:de:0f:d1:a7:61:fc:4c:c5:24:ca:
                    bb:64:ea:05:8e:7f:8b:67:0c:37:53:14:d5:8d:2c:
                    87:85:d4:65:a9:7f:b2:33:e7:fe:a9:87:4b:a3:36:
                    33:c0:cb:26:1f:d4:1a:ed:f9:dd:84:b4:04:da:79:
                    68:90:d5:e7:de:88:7b:2b:7c:5a:98:72:bf:6b:98:
                    19:c2:db:d7:96:7d:72:de:66:7e:fb:e1:88:b8:01:
                    83:b7
                Exponent: 65537 (0x10001)
        X509v3 extensions:
            X509v3 Basic Constraints: critical
                CA:FALSE
            X509v3 Subject Key Identifier: 
                2B:5B:CA:70:80:B9:19:80:C5:DE:15:0E:1A:86:ED:85:6A:B3:36:BB
            X509v3 Authority Key Identifier: 
                keyid:F7:FB:EA:44:B9:0B:F3:E1:D3:85:50:2D:09:C7:39:A8:E2:A9:AD:9D

            X509v3 Extended Key Usage: 
                TLS Web Server Authentication, TLS Web Client Authentication
            X509v3 Subject Alternative Name: 
                DNS:www.example.org, DNS:mail.example.org, DNS:mail.example.com, IP Address:127.0.0.1
    Signature Algorithm: sha256WithRSAEncryption
         93:55:22:50:69:8f:26:e0:90:a8:c9:d4:3c:ba:3f:9f:d0:9f:
         b6:2c:56:73:74:a0:f1:2e:8b:67:1f:c6:39:48:35:c5:84:9e:
         dc:f9:91:8c:e2:4d:39:3e:e3:26:1a:47:cc:9d:3f:7c:85:96:
         d9:a1:00:32:12:ab:4f:4f:9f:49:ee:86:58:56:59:11:ab:3e:
         2b:0d:ed:2e:13:98:8d:87:92:97:90:48:ca:9e:a1:3d:e4:98:
         d1:cd:22:fa:80:3f:72:52:3e:a9:87:fe:1d:d8:e2:c8:1c:c2:
         4f:1d:e5:9e:54:2a:fc:3f:da:81:7f:a4:21:df:81:34:40:84:
         8e:61:b1:a9:46:81:1d:7f:b1:ca:4f:6c:94:2e:25:dd:4b:88:
         79:21:f2:9d:87:8d:c4:61:6d:60:be:d4:4e:81:75:70:45:19:
         dc:d1:2d:79:51:a2:99:77:95:ab:bd:0b:12:3c:dc:7e:cd:44:
         f4:84:39:12:62:88:b3:dc:5d:a8:10:44:e3:c9:35:ed:1d:46:
         a4:4d:63:94:8e:19:5d:97:c9:23:8d:c4:a6:d0:a5:8b:10:b7:
         8b:29:78:b2:df:89:e4:bc:a9:3e:d0:cd:40:54:d3:ae:fd:5b:
         49:5b:52:76:bc:02:ad:01:67:eb:33:e7:c9:6c:93:22:b8:e7:
         fb:9b:33:c2
-----BEGIN CERTIFICATE-----
MIIDtDCCApygAwIBAgIBATANBgkqhkiG9w0BAQsFADAeMRwwGgYDVQQDDBNRVUlD
IFNlcnZlciBSb290IENBMB4XDTE1MDkyNTA5MzUyMVoXDTE1MDkyODA5MzUyMVow
ZDELMAkGA1UEBhMCVVMxEzARBgNVBAgMCkNhbGlmb3JuaWExFjAUBgNVBAcMDU1v
dW50YWluIFZpZXcxFDASBgNVBAoMC1FVSUMgU2VydmVyMRIwEAYDVQQDDAkxMjcu
MC4wLjEwggEiMA0GCSqGSIb3DQEBAQUAA4IBDwAwggEKAoIBAQDEPe6FyBUVaill
71AMJacwEQz7bU1aGmXOMvVc6BP20LcB1ep//PKsHQgI8HFks2nO16dALrx23yuY
h5ETmFeSvr8lvlhPVCs2ewJR0C26P8DoV08iA+89k2DtshVGwQvX8zfAhciCdXT1
MU3hRQB6/cqmm86DqtaCKlNZMxooFK0U7NUDQ9ykHoRHNRAVvmOQsCBm9WI41p4j
/aNo5cnwfzSSUp6VPuSZ3g/Rp2H8TMUkyrtk6gWOf4tnDDdTFNWNLIeF1GWpf7Iz
5/6ph0ujNjPAyyYf1Brt+d2EtATaeWiQ1efeiHsrfFqYcr9rmBnC29eWfXLeZn77
4Yi4AYO3AgMBAAGjgbYwgbMwDAYDVR0TAQH/BAIwADAdBgNVHQ4EFgQUK1vKcIC5
GYDF3hUOGobthWqzNrswHwYDVR0jBBgwFoAU9/vqRLkL8+HThVAtCcc5qOKprZ0w
HQYDVR0lBBYwFAYIKwYBBQUHAwEGCCsGAQUFBwMCMEQGA1UdEQQ9MDuCD3d3dy5l
eGFtcGxlLm9yZ4IQbWFpbC5leGFtcGxlLm9yZ4IQbWFpbC5leGFtcGxlLmNvbYcE
fwAAATANBgkqhkiG9w0BAQsFAAOCAQEAk1UiUGmPJuCQqMnUPLo/n9CftixWc3Sg
8S6LZx/GOUg1xYSe3PmRjOJNOT7jJhpHzJ0/fIWW2aEAMhKrT0+fSe6GWFZZEas+
Kw3tLhOYjYeSl5BIyp6hPeSY0c0i+oA/clI+qYf+HdjiyBzCTx3lnlQq/D/agX+k
Id+BNECEjmGxqUaBHX+xyk9slC4l3UuIeSHynYeNxGFtYL7UToF1cEUZ3NEteVGi
mXeVq70LEjzcfs1E9IQ5EmKIs9xdqBBE48k17R1GpE1jlI4ZXZfJI43EptClixC3
iyl4st+J5LypPtDNQFTTrv1bSVtSdrwCrQFn6zPnyWyTIrjn+5szwg==
-----END CERTIFICATE-----
